(lp0
(dp1
S'month'
p2
I7
sS'day'
p3
I7
sS'year'
p4
I1993
sa(dp5
g2
I4
sg3
I27
sg4
I2011
sa(dp6
g2
I1
sg3
I29
sg4
I2003
sa(dp7
g2
I7
sg3
I2
sg4
I1996
sa(dp8
g2
I12
sg3
I19
sg4
I2000
sa(dp9
g2
I2
sg3
I3
sg4
I1998
sa(dp10
g2
I3
sg3
I18
sg4
I2015
sa(dp11
g2
I9
sg3
I21
sg4
I2011
sa(dp12
g2
I3
sg3
I25
sg4
I1997
sa(dp13
g2
I8
sg3
I17
sg4
I1993
sa(dp14
g2
I9
sg3
I16
sg4
I2003
sa(dp15
g2
I1
sg3
I31
sg4
I2007
sa(dp16
g2
I6
sg3
I29
sg4
I2006
sa(dp17
g2
I12
sg3
I13
sg4
I2011
sa(dp18
g2
I9
sg3
I29
sg4
I1998
sa(dp19
g2
I12
sg3
I11
sg4
I2001
sa(dp20
g2
I9
sg3
I21
sg4
I2010
sa(dp21
g2
I1
sg3
I28
sg4
I2015
sa(dp22
g2
I8
sg3
I7
sg4
I2007
sa(dp23
g2
I6
sg3
I28
sg4
I2000
sa(dp24
g2
I5
sg3
I18
sg4
I1999
sa(dp25
g2
I4
sg3
I30
sg4
I2008
sa(dp26
g2
I9
sg3
I21
sg4
I2004
sa(dp27
g2
I2
sg3
I3
sg4
I1993
sa(dp28
g2
I3
sg3
I28
sg4
I1995
sa(dp29
g2
I5
sg3
I17
sg4
I1994
sa(dp30
g2
I9
sg3
I13
sg4
I2012
sa(dp31
g2
I4
sg3
I28
sg4
I2010
sa(dp32
g2
I12
sg3
I20
sg4
I1994
sa(dp33
g2
I3
sg3
I13
sg4
I2012
sa(dp34
g2
I1
sg3
I26
sg4
I2011
sa(dp35
g2
I3
sg3
I21
sg4
I2000
sa(dp36
g2
I11
sg3
I6
sg4
I2002
sa(dp37
g2
I2
sg3
I2
sg4
I2000
sa(dp38
g2
I12
sg3
I11
sg4
I2007
sa(dp39
g2
I3
sg3
I16
sg4
I2004
sa(dp40
g2
I8
sg3
I1
sg4
I2012
sa(dp41
g2
I3
sg3
I18
sg4
I2015
sa(dp42
g2
I4
sg3
I25
sg4
I2012
sa(dp43
g2
I6
sg3
I20
sg4
I2012
sa(dp44
g2
I9
sg3
I23
sg4
I2009
sa(dp45
g2
I9
sg3
I20
sg4
I2006
sa(dp46
g2
I11
sg3
I6
sg4
I2001
sa(dp47
g2
I12
sg3
I12
sg4
I2006
sa(dp48
g2
I1
sg3
I29
sg4
I2014
sa(dp49
g2
I11
sg3
I3
sg4
I2010
sa(dp50
g2
I12
sg3
I21
sg4
I1999
sa(dp51
g2
I5
sg3
I4
sg4
I2004
sa(dp52
g2
I3
sg3
I31
sg4
I1998
sa(dp53
g2
I10
sg3
I29
sg4
I2014
sa(dp54
g2
I8
sg3
I18
sg4
I1998
sa(dp55
g2
I1
sg3
I27
sg4
I2010
sa(dp56
g2
I12
sg3
I16
sg4
I2009
sa(dp57
g2
I11
sg3
I10
sg4
I2004
sa(dp58
g2
I10
sg3
I5
sg4
I1999
sa(dp59
g2
I11
sg3
I15
sg4
I2000
sa(dp60
g2
I1
sg3
I25
sg4
I2012
sa(dp61
g2
I8
sg3
I13
sg4
I2002
sa(dp62
g2
I11
sg3
I13
sg4
I1996
sa(dp63
g2
I3
sg3
I15
sg4
I2011
sa(dp64
g2
I7
sg3
I1
sg4
I1997
sa(dp65
g2
I9
sg3
I16
sg4
I2008
sa(dp66
g2
I3
sg3
I30
sg4
I1999
sa(dp67
g2
I12
sg3
I17
sg4
I2014
sa(dp68
g2
I9
sg3
I26
sg4
I1995
sa(dp69
g2
I5
sg3
I23
sg4
I1995
sa(dp70
g2
I12
sg3
I13
sg4
I2005
sa(dp71
g2
I6
sg3
I29
sg4
I1999
sa(dp72
g2
I7
sg3
I29
sg4
I2015
sa(dp73
g2
I10
sg3
I31
sg4
I2007
sa(dp74
g2
I9
sg3
I17
sg4
I2014
sa(dp75
g2
I6
sg3
I25
sg4
I2003
sa(dp76
g2
I6
sg3
I22
sg4
I2011
sa(dp77
g2
I3
sg3
I18
sg4
I2009
sa(dp78
g2
I3
sg3
I23
sg4
I1993
sa(dp79
g2
I5
sg3
I19
sg4
I1998
sa(dp80
g2
I6
sg3
I28
sg4
I2007
sa(dp81
g2
I1
sg3
I28
sg4
I2009
sa(dp82
g2
I3
sg3
I22
sg4
I2005
sa(dp83
g2
I9
sg3
I21
sg4
I1993
sa(dp84
g2
I8
sg3
I20
sg4
I1996
sa(dp85
g2
I1
sg3
I30
sg4
I2013
sa(dp86
g2
I1
sg3
I30
sg4
I2008
sa(dp87
g2
I8
sg3
I9
sg4
I2005
sa(dp88
g2
I2
sg3
I4
sg4
I1994
sa(dp89
g2
I5
sg3
I6
sg4
I2003
sa(dp90
g2
I6
sg3
I24
sg4
I2009
sa(dp91
g2
I8
sg3
I10
sg4
I2004
sa(dp92
g2
I11
sg3
I17
sg4
I1998
sa(dp93
g2
I12
sg3
I17
sg4
I1996
sa(dp94
g2
I9
sg3
I24
sg4
I2002
sa(dp95
g2
I12
sg3
I20
sg4
I1994
sa(dp96
g2
I11
sg3
I2
sg4
I2011
sa(dp97
g2
I12
sg3
I19
sg4
I1995
sa(dp98
g2
I9
sg3
I27
sg4
I1994
sa(dp99
g2
I2
sg3
I2
sg4
I1999
sa(dp100
g2
I5
sg3
I20
sg4
I1997
sa(dp101
g2
I9
sg3
I18
sg4
I2007
sa(dp102
g2
I3
sg3
I16
sg4
I2010
sa(dp103
g2
I6
sg3
I18
sg4
I2014
sa(dp104
g2
I8
sg3
I12
sg4
I2003
sa(dp105
g2
I1
sg3
I30
sg4
I1996
sa(dp106
g2
I5
sg3
I15
sg4
I2001
sa(dp107
g2
I4
sg3
I30
sg4
I2014
sa(dp108
g2
I6
sg3
I30
sg4
I2004
sa(dp109
g2
I6
sg3
I30
sg4
I1998
sa(dp110
g2
I10
sg3
I30
sg4
I2013
sa(dp111
g2
I1
sg3
I30
sg4
I2013
sa(dp112
g2
I8
sg3
I21
sg4
I2001
sa(dp113
g2
I10
sg3
I29
sg4
I2008
sa(dp114
g2
I12
sg3
I10
sg4
I2002
sa(dp115
g2
I6
sg3
I30
sg4
I2005
sa(dp116
g2
I10
sg3
I25
sg4
I2006
sa(dp117
g2
I10
sg3
I28
sg4
I2015
sa(dp118
g2
I3
sg3
I19
sg4
I2014
sa(dp119
g2
I4
sg3
I29
sg4
I2015
sa(dp120
g2
I3
sg3
I18
sg4
I2008
sa(dp121
g2
I7
sg3
I6
sg4
I1995
sa(dp122
g2
I5
sg3
I1
sg4
I2013
sa(dp123
g2
I3
sg3
I18
sg4
I2003
sa(dp124
g2
I12
sg3
I12
sg4
I2012
sa(dp125
g2
I1
sg3
I28
sg4
I2004
sa(dp126
g2
I11
sg3
I4
sg4
I2009
sa(dp127
g2
I8
sg3
I19
sg4
I1997
sa(dp128
g2
I5
sg3
I7
sg4
I2002
sa(dp129
g2
I4
sg3
I29
sg4
I2009
sa(dp130
g2
I6
sg3
I23
sg4
I2010
sa(dp131
g2
I1
sg3
I28
sg4
I2015
sa(dp132
g2
I9
sg3
I18
sg4
I2013
sa(dp133
g2
I5
sg3
I18
sg4
I1993
sa(dp134
g2
I8
sg3
I16
sg4
I1994
sa(dp135
g2
I10
sg3
I2
sg4
I2001
sa(dp136
g2
I11
sg3
I1
sg4
I2005
sa(dp137
g2
I8
sg3
I24
sg4
I1999
sa(dp138
g2
I7
sg3
I6
sg4
I1994
sa(dp139
g2
I9
sg3
I20
sg4
I2005
sa(dp140
g2
I11
sg3
I15
sg4
I1995
sa(dp141
g2
I12
sg3
I9
sg4
I2003
sa(dp142
g2
I12
sg3
I14
sg4
I2010
sa(dp143
g2
I9
sg3
I17
sg4
I2015
sa(dp144
g2
I2
sg3
I4
sg4
I1997
sa(dp145
g2
I8
sg3
I10
sg4
I2010
sa(dp146
g2
I8
sg3
I22
sg4
I1995
sa(dp147
g2
I1
sg3
I30
sg4
I2002
sa(dp148
g2
I7
sg3
I31
sg4
I2013
sa(dp149
g2
I6
sg3
I19
sg4
I2013
sa(dp150
g2
I6
sg3
I26
sg4
I2002
sa(dp151
g2
I5
sg3
I9
sg4
I2007
sa(dp152
g2
I6
sg3
I27
sg4
I2001
sa(dp153
g2
I7
sg3
I30
sg4
I2014
sa(dp154
g2
I12
sg3
I14
sg4
I2004
sa(dp155
g2
I8
sg3
I9
sg4
I2011
sa(dp156
g2
I8
sg3
I5
sg4
I2008
sa(dp157
g2
I12
sg3
I22
sg4
I1998
sa(dp158
g2
I5
sg3
I16
sg4
I2000
sa(dp159
g2
I8
sg3
I22
sg4
I2000
sa(dp160
g2
I8
sg3
I12
sg4
I2009
sa(dp161
g2
I1
sg3
I31
sg4
I2006
sa(dp162
g2
I11
sg3
I15
sg4
I1994
sa(dp163
g2
I11
sg3
I16
sg4
I1999
sa(dp164
g2
I5
sg3
I10
sg4
I2006
sa(dp165
g2
I12
sg3
I18
sg4
I2013
sa(dp166
g2
I3
sg3
I19
sg4
I2002
sa(dp167
g2
I11
sg3
I16
sg4
I1993
sa(dp168
g2
I12
sg3
I16
sg4
I1997
sa(dp169
g2
I2
sg3
I1
sg4
I1995
sa(dp170
g2
I5
sg3
I21
sg4
I1996
sa(dp171
g2
I6
sg3
I17
sg4
I2015
sa(dp172
g2
I10
sg3
I28
sg4
I2003
sa(dp173
g2
I9
sg3
I24
sg4
I1996
sa(dp174
g2
I12
sg3
I16
sg4
I2008
sa(dp175
g2
I1
sg3
I29
sg4
I2014
sa(dp176
g2
I3
sg3
I20
sg4
I2013
sa(dp177
g2
I3
sg3
I28
sg4
I2006
sa(dp178
g2
I10
sg3
I3
sg4
I2000
sa(dp179
g2
I8
sg3
I8
sg4
I2006
sa(dp180
g2
I12
sg3
I21
sg4
I1993
sa(dp181
g2
I3
sg3
I26
sg4
I1996
sa(dp182
g2
I3
sg3
I20
sg4
I2001
sa(dp183
g2
I9
sg3
I30
sg4
I1997
sa(dp184
g2
I5
sg3
I3
sg4
I2005
sa(dp185
g2
I10
sg3
I24
sg4
I2012
sa(dp186
g2
I1
sg3
I31
sg4
I2001
sa(dp187
g2
I11
sg3
I12
sg4
I1997
sa(dp188
g2
I2
sg3
I2
sg4
I2005
sa(dp189
g2
I3
sg3
I21
sg4
I2007
sa(dp190
g2
I3
sg3
I22
sg4
I1994
sa.