(lp0
Vhttp://www.federalreserve.gov/fomc/MINUTES/1993/19930707min.htm
p1
aVhttp://www.federalreserve.gov/monetarypolicy/fomcminutes20110427.htm
p2
aVhttp://www.federalreserve.gov/fomc/minutes/20030129.htm
p3
aVhttp://www.federalreserve.gov/fomc/minutes/19960702.htm
p4
aVhttp://www.federalreserve.gov/fomc/minutes/20001219.htm
p5
aVhttp://www.federalreserve.gov/monetarypolicy/files/fomcminutes20150318.pdf
p6
aVhttp://www.federalreserve.gov/monetarypolicy/fomcminutes20090128.htm
p7
aVhttp://www.federalreserve.gov/monetarypolicy/fomcminutes20110921.htm
p8
aVhttp://www.federalreserve.gov/fomc/minutes/20051213.htm
p9
aVhttp://www.federalreserve.gov/fomc/MINUTES/1993/19930817min.htm
p10
aVhttp://www.federalreserve.gov/fomc/minutes/20030916.htm
p11
aVhttp://www.federalreserve.gov/fomc/minutes/20070131.htm
p12
aVhttp://www.federalreserve.gov/fomc/minutes/20060629.htm
p13
aVhttp://www.federalreserve.gov/monetarypolicy/fomcminutes20111213.htm
p14
aVhttp://www.federalreserve.gov/fomc/minutes/19980929.htm
p15
aVhttp://www.federalreserve.gov/monetarypolicy/fomcminutes20100921.htm
p16
aVhttp://www.federalreserve.gov/monetarypolicy/files/fomcminutes20150128.pdf
p17
aVhttp://www.federalreserve.gov/fomc/minutes/20070807.htm
p18
aVhttp://www.federalreserve.gov/fomc/minutes/20000628.htm
p19
aVhttp://www.federalreserve.gov/fomc/minutes/19990518.htm
p20
aVhttp://www.federalreserve.gov/monetarypolicy/fomcminutes20080430.htm
p21
aVhttp://www.federalreserve.gov/fomc/minutes/20040921.htm
p22
aVhttp://www.federalreserve.gov/fomc/MINUTES/1995/19950328min.htm
p23
aVhttp://www.federalreserve.gov/fomc/MINUTES/1994/19940517min.htm
p24
aVhttp://www.federalreserve.gov/monetarypolicy/fomcminutes20120913.htm
p25
aVhttp://www.federalreserve.gov/monetarypolicy/fomcminutes20100428.htm
p26
aVhttp://www.federalreserve.gov/fomc/minutes/1994/19941220min.htm
p27
aVhttp://www.federalreserve.gov/monetarypolicy/fomcminutes20120313.htm
p28
aVhttp://www.federalreserve.gov/fomc/minutes/19980203.htm
p29
aVhttp://www.federalreserve.gov/fomc/minutes/20000321.htm
p30
aVhttp://www.federalreserve.gov/fomc/minutes/20021106.htm
p31
aVhttp://www.federalreserve.gov/fomc/minutes/20000202.htm
p32
aVhttp://www.federalreserve.gov/monetarypolicy/fomcminutes20071211.htm
p33
aVhttp://www.federalreserve.gov/fomc/minutes/20040316.htm
p34
aVhttp://www.federalreserve.gov/monetarypolicy/fomcminutes20120801.htm
p35
aVhttp://www.federalreserve.gov/monetarypolicy/fomcminutes20150318.htm
p36
aVhttp://www.federalreserve.gov/monetarypolicy/fomcminutes20120425.htm
p37
aVhttp://www.federalreserve.gov/monetarypolicy/fomcminutes20090923.htm
p38
aVhttp://www.federalreserve.gov/fomc/minutes/20060920.htm
p39
aVhttp://www.federalreserve.gov/fomc/minutes/20011106.htm
p40
aVhttp://www.federalreserve.gov/fomc/minutes/20061212.htm
p41
aVhttp://www.federalreserve.gov/monetarypolicy/fomcminutes20140129.htm
p42
aVhttp://www.federalreserve.gov/monetarypolicy/fomcminutes20101103.htm
p43
aVhttp://www.federalreserve.gov/fomc/minutes/19991221.htm
p44
aVhttp://www.federalreserve.gov/fomc/minutes/20040504.htm
p45
aVhttp://www.federalreserve.gov/fomc/minutes/19980331.htm
p46
aVhttp://www.federalreserve.gov/monetarypolicy/fomcminutes20141029.htm
p47
aVhttp://www.federalreserve.gov/fomc/minutes/19980818.htm
p48
aVhttp://www.federalreserve.gov/monetarypolicy/fomcminutes20100127.htm
p49
aVhttp://www.federalreserve.gov/monetarypolicy/fomcminutes20091216.htm
p50
aVhttp://www.federalreserve.gov/fomc/minutes/20041110.htm
p51
aVhttp://www.federalreserve.gov/fomc/minutes/19991005.htm
p52
aVhttp://www.federalreserve.gov/monetarypolicy/fomcminutes20120125.htm
p53
aVhttp://www.federalreserve.gov/fomc/minutes/20020813.htm
p54
aVhttp://www.federalreserve.gov/fomc/minutes/19961113.htm
p55
aVhttp://www.federalreserve.gov/monetarypolicy/fomcminutes20110315.htm
p56
aVhttp://www.federalreserve.gov/fomc/minutes/19970701.htm
p57
aVhttp://www.federalreserve.gov/monetarypolicy/fomcminutes20080916.htm
p58
aVhttp://www.federalreserve.gov/fomc/minutes/19990330.htm
p59
aVhttp://www.federalreserve.gov/monetarypolicy/fomcminutes20141217.htm
p60
aVhttp://www.federalreserve.gov/fomc/MINUTES/1995/19950926min.htm
p61
aVhttp://www.federalreserve.gov/fomc/MINUTES/1995/19950523min.htm
p62
aVhttp://www.federalreserve.gov/fomc/minutes/19970325.htm
p63
aVhttp://www.federalreserve.gov/fomc/minutes/19990629.htm
p64
aVhttp://www.federalreserve.gov/fomc/minutes/20011211.htm
p65
aVhttp://www.federalreserve.gov/monetarypolicy/fomcminutes20071031.htm
p66
aVhttp://www.federalreserve.gov/monetarypolicy/fomcminutes20140917.htm
p67
aVhttp://www.federalreserve.gov/fomc/minutes/20030625.htm
p68
aVhttp://www.federalreserve.gov/monetarypolicy/fomcminutes20110622.htm
p69
aVhttp://www.federalreserve.gov/monetarypolicy/fomcminutes20120620.htm
p70
aVhttp://www.federalreserve.gov/fomc/MINUTES/1993/19930323min.htm
p71
aVhttp://www.federalreserve.gov/fomc/minutes/19980519.htm
p72
aVhttp://www.federalreserve.gov/fomc/minutes/20070628.htm
p73
aVhttp://www.federalreserve.gov/monetarypolicy/fomcminutes20150729.htm
p74
aVhttp://www.federalreserve.gov/fomc/minutes/20050322.htm
p75
aVhttp://www.federalreserve.gov/monetarypolicy/fomcminutes20110126.htm
p76
aVhttp://www.federalreserve.gov/fomc/minutes/19960820.htm
p77
aVhttp://www.federalreserve.gov/monetarypolicy/files/fomcminutes20130130.pdf
p78
aVhttp://www.federalreserve.gov/monetarypolicy/fomcminutes20080130.htm
p79
aVhttp://www.federalreserve.gov/fomc/minutes/20050809.htm
p80
aVhttp://www.federalreserve.gov/fomc/MINUTES/1994/19940204min.htm
p81
aVhttp://www.federalreserve.gov/fomc/minutes/20030506.htm
p82
aVhttp://www.federalreserve.gov/monetarypolicy/fomcminutes20090624.htm
p83
aVhttp://www.federalreserve.gov/fomc/minutes/20040810.htm
p84
aVhttp://www.federalreserve.gov/fomc/minutes/19981117.htm
p85
aVhttp://www.federalreserve.gov/fomc/minutes/19961217.htm
p86
aVhttp://www.federalreserve.gov/fomc/minutes/20020924.htm
p87
aVhttp://www.federalreserve.gov/fomc/MINUTES/1994/19941220min.htm
p88
aVhttp://www.federalreserve.gov/monetarypolicy/fomcminutes20111102.htm
p89
aVhttp://www.federalreserve.gov/fomc/MINUTES/1995/19951219min.htm
p90
aVhttp://www.federalreserve.gov/fomc/MINUTES/1994/19940927min.htm
p91
aVhttp://www.federalreserve.gov/fomc/minutes/19990202.htm
p92
aVhttp://www.federalreserve.gov/fomc/minutes/19970520.htm
p93
aVhttp://www.federalreserve.gov/fomc/MINUTES/1993/19930921min.htm
p94
aVhttp://www.federalreserve.gov/monetarypolicy/fomcminutes20100316.htm
p95
aVhttp://www.federalreserve.gov/monetarypolicy/fomcminutes20140618.htm
p96
aVhttp://www.federalreserve.gov/fomc/minutes/20030812.htm
p97
aVhttp://www.federalreserve.gov/fomc/minutes/19960130.htm
p98
aVhttp://www.federalreserve.gov/fomc/minutes/20010515.htm
p99
aVhttp://www.federalreserve.gov/monetarypolicy/fomcminutes20140430.htm
p100
aVhttp://www.federalreserve.gov/fomc/minutes/20040630.htm
p101
aVhttp://www.federalreserve.gov/fomc/minutes/19980630.htm
p102
aVhttp://www.federalreserve.gov/monetarypolicy/fomcminutes20131030.htm
p103
aVhttp://www.federalreserve.gov/monetarypolicy/fomcminutes20130130.htm
p104
aVhttp://www.federalreserve.gov/fomc/minutes/20010821.htm
p105
aVhttp://www.federalreserve.gov/monetarypolicy/fomcminutes20081029.htm
p106
aVhttp://www.federalreserve.gov/fomc/minutes/20021210.htm
p107
aVhttp://www.federalreserve.gov/fomc/minutes/20050630.htm
p108
aVhttp://www.federalreserve.gov/monetarypolicy/fomcminutes20090318.htm
p109
aVhttp://www.federalreserve.gov/monetarypolicy/fomcminutes20151028.htm
p110
aVhttp://www.federalreserve.gov/monetarypolicy/fomcminutes20140319.htm
p111
aVhttp://www.federalreserve.gov/monetarypolicy/fomcminutes20150429.htm
p112
aVhttp://www.federalreserve.gov/monetarypolicy/fomcminutes20080318.htm
p113
aVhttp://www.federalreserve.gov/fomc/MINUTES/1993/19930203min.htm
p114
aVhttp://www.federalreserve.gov/monetarypolicy/fomcminutes20130501.htm
p115
aVhttp://www.federalreserve.gov/fomc/minutes/20030318.htm
p116
aVhttp://www.federalreserve.gov/monetarypolicy/fomcminutes20121212.htm
p117
aVhttp://www.federalreserve.gov/fomc/minutes/20040128.htm
p118
aVhttp://www.federalreserve.gov/monetarypolicy/fomcminutes20091104.htm
p119
aVhttp://www.federalreserve.gov/fomc/minutes/19970819.htm
p120
aVhttp://www.federalreserve.gov/fomc/minutes/20020507.htm
p121
aVhttp://www.federalreserve.gov/monetarypolicy/fomcminutes20090429.htm
p122
aVhttp://www.federalreserve.gov/monetarypolicy/fomcminutes20100623.htm
p123
aVhttp://www.federalreserve.gov/monetarypolicy/fomcminutes20150128.htm
p124
aVhttp://www.federalreserve.gov/monetarypolicy/fomcminutes20130918.htm
p125
aVhttp://www.federalreserve.gov/fomc/MINUTES/1994/19940816min.htm
p126
aVhttp://www.federalreserve.gov/fomc/minutes/20011002.htm
p127
aVhttp://www.federalreserve.gov/fomc/minutes/20051101.htm
p128
aVhttp://www.federalreserve.gov/fomc/MINUTES/1995/19950706min.htm
p129
aVhttp://www.federalreserve.gov/fomc/MINUTES/1994/19940706min.htm
p130
aVhttp://www.federalreserve.gov/fomc/minutes/20050920.htm
p131
aVhttp://www.federalreserve.gov/fomc/MINUTES/1995/19951115min.htm
p132
aVhttp://www.federalreserve.gov/fomc/minutes/20031209.htm
p133
aVhttp://www.federalreserve.gov/monetarypolicy/fomcminutes20101214.htm
p134
aVhttp://www.federalreserve.gov/monetarypolicy/fomcminutes20150917.htm
p135
aVhttp://www.federalreserve.gov/fomc/minutes/19970204.htm
p136
aVhttp://www.federalreserve.gov/fomc/MINUTES/1993/19930518min.htm
p137
aVhttp://www.federalreserve.gov/fomc/MINUTES/1995/19950822min.htm
p138
aVhttp://www.federalreserve.gov/fomc/minutes/20020130.htm
p139
aVhttp://www.federalreserve.gov/monetarypolicy/fomcminutes20130731.htm
p140
aVhttp://www.federalreserve.gov/monetarypolicy/fomcminutes20130619.htm
p141
aVhttp://www.federalreserve.gov/fomc/minutes/20020626.htm
p142
aVhttp://www.federalreserve.gov/fomc/minutes/20070509.htm
p143
aVhttp://www.federalreserve.gov/fomc/minutes/20010627.htm
p144
aVhttp://www.federalreserve.gov/monetarypolicy/fomcminutes20140730.htm
p145
aVhttp://www.federalreserve.gov/fomc/minutes/20041214.htm
p146
aVhttp://www.federalreserve.gov/monetarypolicy/files/fomcminutes20140129.pdf
p147
aVhttp://www.federalreserve.gov/monetarypolicy/fomcminutes20110809.htm
p148
aVhttp://www.federalreserve.gov/monetarypolicy/fomcminutes20080805.htm
p149
aVhttp://www.federalreserve.gov/fomc/minutes/20061025.htm
p150
aVhttp://www.federalreserve.gov/fomc/minutes/19981222.htm
p151
aVhttp://www.federalreserve.gov/fomc/minutes/20000516.htm
p152
aVhttp://www.federalreserve.gov/fomc/minutes/20000822.htm
p153
aVhttp://www.federalreserve.gov/monetarypolicy/fomcminutes20090812.htm
p154
aVhttp://www.federalreserve.gov/fomc/minutes/20060131.htm
p155
aVhttp://www.federalreserve.gov/fomc/MINUTES/1994/19941115min.htm
p156
aVhttp://www.federalreserve.gov/fomc/minutes/19991116.htm
p157
aVhttp://www.federalreserve.gov/fomc/minutes/20060510.htm
p158
aVhttp://www.federalreserve.gov/monetarypolicy/fomcminutes20131218.htm
p159
aVhttp://www.federalreserve.gov/fomc/minutes/20020319.htm
p160
aVhttp://www.federalreserve.gov/fomc/MINUTES/1993/19931116min.htm
p161
aVhttp://www.federalreserve.gov/monetarypolicy/fomcminutes20100810.htm
p162
aVhttp://www.federalreserve.gov/fomc/minutes/19971216.htm
p163
aVhttp://www.federalreserve.gov/fomc/MINUTES/1995/19950201min.htm
p164
aVhttp://www.federalreserve.gov/fomc/minutes/19960521.htm
p165
aVhttp://www.federalreserve.gov/fomc/minutes/20050202.htm
p166
aVhttp://www.federalreserve.gov/monetarypolicy/fomcminutes20150617.htm
p167
aVhttp://www.federalreserve.gov/fomc/minutes/20031028.htm
p168
aVhttp://www.federalreserve.gov/fomc/minutes/19960924.htm
p169
aVhttp://www.federalreserve.gov/monetarypolicy/fomcminutes20081216.htm
p170
aVhttp://www.federalreserve.gov/monetarypolicy/fomcminutes20130320.htm
p171
aVhttp://www.federalreserve.gov/fomc/minutes/19990824.htm
p172
aVhttp://www.federalreserve.gov/fomc/minutes/20060328.htm
p173
aVhttp://www.federalreserve.gov/fomc/minutes/20001003.htm
p174
aVhttp://www.federalreserve.gov/fomc/minutes/20060808.htm
p175
aVhttp://www.federalreserve.gov/fomc/MINUTES/1993/19931221min.htm
p176
aVhttp://www.federalreserve.gov/fomc/minutes/19960326.htm
p177
aVhttp://www.federalreserve.gov/fomc/minutes/20010320.htm
p178
aVhttp://www.federalreserve.gov/fomc/minutes/20070918.htm
p179
aVhttp://www.federalreserve.gov/fomc/minutes/19970930.htm
p180
aVhttp://www.federalreserve.gov/fomc/minutes/20050503.htm
p181
aVhttp://www.federalreserve.gov/monetarypolicy/fomcminutes20121024.htm
p182
aVhttp://www.federalreserve.gov/fomc/minutes/20010131.htm
p183
aVhttp://www.federalreserve.gov/fomc/minutes/19971112.htm
p184
aVhttp://www.federalreserve.gov/fomc/minutes/20001115.htm
p185
aVhttp://www.federalreserve.gov/fomc/minutes/20070321.htm
p186
aVhttp://www.federalreserve.gov/fomc/MINUTES/1994/19940322min.htm
p187
a.